; Function Attrs: nounwind uwtable
define hidden void @zif_libxml_clear_errors(ptr nocapture noundef readonly %0, ptr nocapture readnone %1) #0 {
  %3 = getelementptr inbounds i8, ptr %0, i64 44
  %4 = load i32, ptr %3, align 4
  %.not = icmp eq i32 %4, 0
  br i1 %.not, label %6, label %5

5:                                                ; preds = %2
  tail call void @zend_wrong_parameters_none_error() #17
  br label %9

6:                                                ; preds = %2
  tail call void @xmlResetLastError() #17
  %7 = load ptr, ptr getelementptr inbounds (%struct._zend_libxml_globals, ptr @libxml_globals, i64 0, i32 2), align 8
  %.not1 = icmp eq ptr %7, null
  br i1 %.not1, label %9, label %8

8:                                                ; preds = %6
  tail call void @zend_llist_clean(ptr noundef nonnull %7) #17
  br label %9

9:                                                ; preds = %8, %6, %5
  ret void
}